target datalayout = "e-m:e-p270:32:32-p271:32:32-p272:64:64-i64:64-i128:128-f80:128-n8:16:32:64-S128"
target triple = "x86_64-unknown-linux-gnu"

%"class.node::MemoryRetainer" = type { ptr }
%"class.std::__shared_count" = type { ptr }
%"class.std::__shared_ptr.18" = type { ptr, %"class.std::__shared_count" }
%"struct.node::SocketAddressBlockList::Rule" = type { %"class.node::MemoryRetainer" }
%"class.std::shared_ptr.17" = type { %"class.std::__shared_ptr.18" }
%"struct.node::SocketAddressBlockList::SocketAddressRangeRule" = type { %"struct.node::SocketAddressBlockList::Rule", %"class.std::shared_ptr.17", %"class.std::shared_ptr.17" }

; Function Attrs: mustprogress nounwind uwtable
define linkonce_odr dso_local noundef zeroext i1 @_ZNK4node13SocketAddressleERKS0_(ptr noundef nonnull align 8 dereferenceable(136) %this, ptr noundef nonnull align 8 dereferenceable(136) %other) #4 comdat align 2 {
entry:
  %this.addr = alloca ptr, align 8
  %other.addr = alloca ptr, align 8
  %c = alloca i32, align 4
  store ptr %this, ptr %this.addr, align 8
  store ptr %other, ptr %other.addr, align 8
  %this1 = load ptr, ptr %this.addr, align 8
  %0 = load ptr, ptr %other.addr, align 8
  %call = call noundef i32 @_ZNK4node13SocketAddress7compareERKS0_(ptr noundef nonnull align 8 dereferenceable(136) %this1, ptr noundef nonnull align 8 dereferenceable(136) %0)
  store i32 %call, ptr %c, align 4
  %1 = load i32, ptr %c, align 4
  %cmp = icmp eq i32 %1, -2
  br i1 %cmp, label %cond.true, label %cond.false

cond.true:                                        ; preds = %entry
  br label %cond.end

cond.false:                                       ; preds = %entry
  %2 = load i32, ptr %c, align 4
  %cmp2 = icmp sle i32 %2, 0
  br label %cond.end

cond.end:                                         ; preds = %cond.false, %cond.true
  %cond = phi i1 [ false, %cond.true ], [ %cmp2, %cond.false ]
  ret i1 %cond
}

; Function Attrs: mustprogress nounwind uwtable
define linkonce_odr dso_local noundef zeroext i1 @_ZNK4node13SocketAddressgeERKS0_(ptr noundef nonnull align 8 dereferenceable(136) %this, ptr noundef nonnull align 8 dereferenceable(136) %other) #4 comdat align 2 {
entry:
  %this.addr = alloca ptr, align 8
  %other.addr = alloca ptr, align 8
  store ptr %this, ptr %this.addr, align 8
  store ptr %other, ptr %other.addr, align 8
  %this1 = load ptr, ptr %this.addr, align 8
  %0 = load ptr, ptr %other.addr, align 8
  %call = call noundef i32 @_ZNK4node13SocketAddress7compareERKS0_(ptr noundef nonnull align 8 dereferenceable(136) %this1, ptr noundef nonnull align 8 dereferenceable(136) %0)
  %cmp = icmp sge i32 %call, 0
  ret i1 %cmp
}

; Function Attrs: mustprogress nounwind uwtable
define linkonce_odr dso_local noundef ptr @_ZNKSt12__shared_ptrIN4node13SocketAddressELN9__gnu_cxx12_Lock_policyE2EE3getEv(ptr noundef nonnull align 8 dereferenceable(16) %this) #4 comdat align 2 {
entry:
  %this.addr = alloca ptr, align 8
  store ptr %this, ptr %this.addr, align 8
  %this1 = load ptr, ptr %this.addr, align 8
  %_M_ptr = getelementptr inbounds %"class.std::__shared_ptr.18", ptr %this1, i32 0, i32 0
  %0 = load ptr, ptr %_M_ptr, align 8
  ret ptr %0
}

; Function Attrs: mustprogress nounwind uwtable
define dso_local noundef zeroext i1 @_ZN4node22SocketAddressBlockList22SocketAddressRangeRule5ApplyERKSt10shared_ptrINS_13SocketAddressEE(ptr noundef nonnull align 8 dereferenceable(40) %this, ptr noundef nonnull align 8 dereferenceable(16) %address) unnamed_addr #4 align 2 {
entry:
  %this.addr = alloca ptr, align 8
  %address.addr = alloca ptr, align 8
  store ptr %this, ptr %this.addr, align 8
  store ptr %address, ptr %address.addr, align 8
  %this1 = load ptr, ptr %this.addr, align 8
  %0 = load ptr, ptr %address.addr, align 8
  %call = call noundef ptr @_ZNKSt12__shared_ptrIN4node13SocketAddressELN9__gnu_cxx12_Lock_policyE2EE3getEv(ptr noundef nonnull align 8 dereferenceable(16) %0) #3
  %start = getelementptr inbounds %"struct.node::SocketAddressBlockList::SocketAddressRangeRule", ptr %this1, i32 0, i32 1
  %call2 = call noundef ptr @_ZNKSt12__shared_ptrIN4node13SocketAddressELN9__gnu_cxx12_Lock_policyE2EE3getEv(ptr noundef nonnull align 8 dereferenceable(16) %start) #3
  %call3 = call noundef zeroext i1 @_ZNK4node13SocketAddressgeERKS0_(ptr noundef nonnull align 8 dereferenceable(136) %call, ptr noundef nonnull align 8 dereferenceable(136) %call2)
  br i1 %call3, label %land.rhs, label %land.end

land.rhs:                                         ; preds = %entry
  %1 = load ptr, ptr %address.addr, align 8
  %call4 = call noundef ptr @_ZNKSt12__shared_ptrIN4node13SocketAddressELN9__gnu_cxx12_Lock_policyE2EE3getEv(ptr noundef nonnull align 8 dereferenceable(16) %1) #3
  %end = getelementptr inbounds %"struct.node::SocketAddressBlockList::SocketAddressRangeRule", ptr %this1, i32 0, i32 2
  %call5 = call noundef ptr @_ZNKSt12__shared_ptrIN4node13SocketAddressELN9__gnu_cxx12_Lock_policyE2EE3getEv(ptr noundef nonnull align 8 dereferenceable(16) %end) #3
  %call6 = call noundef zeroext i1 @_ZNK4node13SocketAddressleERKS0_(ptr noundef nonnull align 8 dereferenceable(136) %call4, ptr noundef nonnull align 8 dereferenceable(136) %call5)
  br label %land.end

land.end:                                         ; preds = %land.rhs, %entry
  %2 = phi i1 [ false, %entry ], [ %call6, %land.rhs ]
  ret i1 %2
}