; Function Attrs: mustprogress nofree nounwind willreturn memory(read, inaccessiblemem: none) uwtable
define dso_local noundef zeroext i1 @_ZN4node22SocketAddressBlockList22SocketAddressRangeRule5ApplyERKSt10shared_ptrINS_13SocketAddressEE(ptr nocapture noundef nonnull readonly align 8 dereferenceable(40) %this, ptr nocapture noundef nonnull readonly align 8 dereferenceable(16) %address) unnamed_addr #8 align 2 {
entry:
  %0 = load ptr, ptr %address, align 8
  %start = getelementptr inbounds i8, ptr %this, i64 8
  %1 = load ptr, ptr %start, align 8
  %call.i = tail call noundef i32 @_ZNK4node13SocketAddress7compareERKS0_(ptr noundef nonnull align 8 dereferenceable(136) %0, ptr noundef nonnull align 8 dereferenceable(136) %1), !range !30
  %cmp.i = icmp sgt i32 %call.i, -1
  br i1 %cmp.i, label %land.rhs, label %land.end

land.rhs:                                         ; preds = %entry
  %end = getelementptr inbounds i8, ptr %this, i64 24
  %2 = load ptr, ptr %end, align 8
  %call.i2 = tail call noundef i32 @_ZNK4node13SocketAddress7compareERKS0_(ptr noundef nonnull align 8 dereferenceable(136) %0, ptr noundef nonnull align 8 dereferenceable(136) %2), !range !30
  %cmp.i3 = icmp ne i32 %call.i2, -2
  %cmp2.i = icmp slt i32 %call.i2, 1
  %cond.i = and i1 %cmp.i3, %cmp2.i
  br label %land.end

land.end:                                         ; preds = %land.rhs, %entry
  %3 = phi i1 [ false, %entry ], [ %cond.i, %land.rhs ]
  ret i1 %3
}